target datalayout = "e-m:e-p270:32:32-p271:32:32-p272:64:64-i64:64-i128:128-f80:128-n8:16:32:64-S128"
target triple = "x86_64-pc-linux-gnu"

%struct.nstime_t = type { i64 }
%struct.malloc_mutex_s = type { %union.anon }
%union.anon = type { %struct.anon }
%struct.anon = type { %struct.mutex_prof_data_t, %union.pthread_mutex_t, %struct.atomic_b_t }
%struct.mutex_prof_data_t = type { %struct.nstime_t, %struct.nstime_t, i64, i64, i32, %struct.atomic_u32_t, i64, ptr, i64 }
%struct.atomic_u32_t = type { i32 }
%union.pthread_mutex_t = type { %struct.__pthread_mutex_s }
%struct.__pthread_mutex_s = type { i32, i32, i32, i32, i32, i16, i16, %struct.__pthread_internal_list }
%struct.__pthread_internal_list = type { ptr, ptr }
%struct.atomic_b_t = type { i8 }
%struct.hpa_shard_s = type { %struct.pai_s, ptr, %struct.malloc_mutex_s, %struct.malloc_mutex_s, ptr, %struct.edata_cache_fast_s, %struct.psset_s, i64, i32, ptr, %struct.hpa_shard_opts_s, i64, %struct.hpa_shard_nonderived_stats_s, %struct.nstime_t }
%struct.pai_s = type { ptr, ptr, ptr, ptr, ptr, ptr, ptr }
%struct.edata_cache_fast_s = type { %struct.edata_list_inactive_t, ptr, i8 }
%struct.edata_list_inactive_t = type { %struct.anon.1 }
%struct.anon.1 = type { ptr }
%struct.psset_s = type { [64 x %struct.hpdata_age_heap_t], [1 x i64], %struct.psset_bin_stats_s, %struct.psset_stats_s, %struct.hpdata_empty_list_t, [128 x %struct.hpdata_purge_list_t], [2 x i64], %struct.hpdata_hugify_list_t }
%struct.hpdata_age_heap_t = type { %struct.ph_s }
%struct.ph_s = type { ptr, i64 }
%struct.psset_bin_stats_s = type { i64, i64, i64 }
%struct.psset_stats_s = type { [64 x [2 x %struct.psset_bin_stats_s]], [2 x %struct.psset_bin_stats_s], [2 x %struct.psset_bin_stats_s] }
%struct.hpdata_empty_list_t = type { %struct.anon.2 }
%struct.anon.2 = type { ptr }
%struct.hpdata_purge_list_t = type { %struct.anon.3 }
%struct.anon.3 = type { ptr }
%struct.hpdata_hugify_list_t = type { %struct.anon.4 }
%struct.anon.4 = type { ptr }
%struct.hpa_shard_opts_s = type { i64, i64, i32, i8, i64, i64 }
%struct.hpa_shard_nonderived_stats_s = type { i64, i64, i64, i64 }
%struct.hpa_shard_stats_s = type { %struct.psset_stats_s, %struct.hpa_shard_nonderived_stats_s }
%struct.tsdn_s = type { %struct.tsd_s }
%struct.tsd_s = type { i8, i8, i64, i64, i64, i64, i64, i64, i64, i64, i64, i64, i64, i64, ptr, i64, i64, i64, ptr, ptr, %struct.ticker_geom_s, i8, %struct.tsd_binshards_s, %struct.tsd_link_t, i8, %struct.peak_s, %struct.activity_callback_thunk_s, %struct.tcache_slow_s, %struct.rtree_ctx_s, %struct.atomic_u8_t, i64, i64, i64, i64, %struct.tcache_s, %struct.witness_tsd_s }
%struct.ticker_geom_s = type { i32, i32 }
%struct.tsd_binshards_s = type { [39 x i8] }
%struct.tsd_link_t = type { ptr, ptr }
%struct.peak_s = type { i64, i64 }
%struct.activity_callback_thunk_s = type { ptr, ptr }
%struct.tcache_slow_s = type { %struct.anon.5, %struct.cache_bin_array_descriptor_s, ptr, i32, [39 x i8], [39 x i8], [39 x i8], ptr, ptr }
%struct.anon.5 = type { ptr, ptr }
%struct.cache_bin_array_descriptor_s = type { %struct.anon.6, ptr }
%struct.anon.6 = type { ptr, ptr }
%struct.rtree_ctx_s = type { [16 x %struct.rtree_ctx_cache_elm_s], [8 x %struct.rtree_ctx_cache_elm_s] }
%struct.rtree_ctx_cache_elm_s = type { i64, ptr }
%struct.atomic_u8_t = type { i8 }
%struct.tcache_s = type { ptr, [76 x %struct.cache_bin_s] }
%struct.cache_bin_s = type { ptr, %struct.cache_bin_stats_s, i16, i16, i16 }
%struct.cache_bin_stats_s = type { i64 }
%struct.witness_tsd_s = type { %struct.witness_list_t, i8 }
%struct.witness_list_t = type { ptr }

; Function Attrs: alwaysinline nounwind uwtable
define internal ptr @tsd_witness_tsdp_get_unsafe(ptr noundef %0) #5 {
  %2 = alloca ptr, align 8
  store ptr %0, ptr %2, align 8, !tbaa !40
  %3 = load ptr, ptr %2, align 8, !tbaa !40
  %4 = getelementptr inbounds nuw %struct.tsd_s, ptr %3, i32 0, i32 35
  ret ptr %4
}

; Function Attrs: alwaysinline nounwind uwtable
define internal zeroext i8 @tsd_state_get(ptr noundef %0) #5 {
  %2 = alloca ptr, align 8
  store ptr %0, ptr %2, align 8, !tbaa !40
  %3 = load ptr, ptr %2, align 8, !tbaa !40
  %4 = getelementptr inbounds nuw %struct.tsd_s, ptr %3, i32 0, i32 29
  %5 = load i8, ptr %4, align 8, !tbaa !89
  ret i8 %5
}

; Function Attrs: alwaysinline nounwind uwtable
define internal i32 @atomic_enum_to_builtin(i32 noundef %0) #5 {
  %2 = alloca i32, align 4
  %3 = alloca i32, align 4
  store i32 %0, ptr %3, align 4, !tbaa !38
  %4 = load i32, ptr %3, align 4, !tbaa !38
  switch i32 %4, label %10 [
    i32 0, label %5
    i32 1, label %6
    i32 2, label %7
    i32 3, label %8
    i32 4, label %9
  ]

5:                                                ; preds = %1
  store i32 0, ptr %2, align 4
  br label %12

6:                                                ; preds = %1
  store i32 2, ptr %2, align 4
  br label %12

7:                                                ; preds = %1
  store i32 3, ptr %2, align 4
  br label %12

8:                                                ; preds = %1
  store i32 4, ptr %2, align 4
  br label %12

9:                                                ; preds = %1
  store i32 5, ptr %2, align 4
  br label %12

10:                                               ; preds = %1
  br label %11

11:                                               ; preds = %10
  unreachable

12:                                               ; preds = %5, %6, %7, %8, %9
  %13 = load i32, ptr %2, align 4
  ret i32 %13
}

; Function Attrs: alwaysinline nounwind uwtable
define internal ptr @tsd_witness_tsdp_get(ptr noundef %0) #5 {
  %2 = alloca ptr, align 8
  %3 = alloca i8, align 1
  store ptr %0, ptr %2, align 8, !tbaa !40
  call void @llvm.lifetime.start.p0(i64 1, ptr %3) #7
  %4 = load ptr, ptr %2, align 8, !tbaa !40
  %5 = call zeroext i8 @tsd_state_get(ptr noundef %4)
  store i8 %5, ptr %3, align 1, !tbaa !89
  br label %6

6:                                                ; preds = %1
  br label %7

7:                                                ; preds = %6
  br label %8

8:                                                ; preds = %7
  %9 = load ptr, ptr %2, align 8, !tbaa !40
  %10 = call ptr @tsd_witness_tsdp_get_unsafe(ptr noundef %9)
  call void @llvm.lifetime.end.p0(i64 1, ptr %3) #7
  ret ptr %10
}

; Function Attrs: alwaysinline nounwind uwtable
define internal ptr @tsdn_tsd(ptr noundef %0) #5 {
  %2 = alloca ptr, align 8
  store ptr %0, ptr %2, align 8, !tbaa !27
  br label %3

3:                                                ; preds = %1
  br label %4

4:                                                ; preds = %3
  %5 = load ptr, ptr %2, align 8, !tbaa !27
  %6 = getelementptr inbounds nuw %struct.tsdn_s, ptr %5, i32 0, i32 0
  ret ptr %6
}

; Function Attrs: alwaysinline nounwind uwtable
define internal zeroext i1 @tsdn_null(ptr noundef %0) #5 {
  %2 = alloca ptr, align 8
  store ptr %0, ptr %2, align 8, !tbaa !27
  %3 = load ptr, ptr %2, align 8, !tbaa !27
  %4 = icmp eq ptr %3, null
  ret i1 %4
}

; Function Attrs: inlinehint nounwind uwtable
define internal void @witness_unlock(ptr noundef %0, ptr noundef %1) #4 {
  %3 = alloca ptr, align 8
  %4 = alloca ptr, align 8
  store ptr %0, ptr %3, align 8, !tbaa !36
  store ptr %1, ptr %4, align 8, !tbaa !112
  ret void
}

; Function Attrs: inlinehint nounwind uwtable
define internal void @witness_lock(ptr noundef %0, ptr noundef %1) #4 {
  %3 = alloca ptr, align 8
  %4 = alloca ptr, align 8
  store ptr %0, ptr %3, align 8, !tbaa !36
  store ptr %1, ptr %4, align 8, !tbaa !112
  ret void
}

; Function Attrs: inlinehint nounwind uwtable
define internal void @mutex_owner_stats_update(ptr noundef %0, ptr noundef %1) #4 {
  %3 = alloca ptr, align 8
  %4 = alloca ptr, align 8
  %5 = alloca ptr, align 8
  store ptr %0, ptr %3, align 8, !tbaa !27
  store ptr %1, ptr %4, align 8, !tbaa !42
  call void @llvm.lifetime.start.p0(i64 8, ptr %5) #7
  %6 = load ptr, ptr %4, align 8, !tbaa !42
  %7 = getelementptr inbounds nuw %struct.malloc_mutex_s, ptr %6, i32 0, i32 0
  %8 = getelementptr inbounds nuw %struct.anon, ptr %7, i32 0, i32 0
  store ptr %8, ptr %5, align 8, !tbaa !26
  %9 = load ptr, ptr %5, align 8, !tbaa !26
  %10 = getelementptr inbounds nuw %struct.mutex_prof_data_t, ptr %9, i32 0, i32 8
  %11 = load i64, ptr %10, align 8, !tbaa !114
  %12 = add i64 %11, 1
  store i64 %12, ptr %10, align 8, !tbaa !114
  %13 = load ptr, ptr %5, align 8, !tbaa !26
  %14 = getelementptr inbounds nuw %struct.mutex_prof_data_t, ptr %13, i32 0, i32 7
  %15 = load ptr, ptr %14, align 8, !tbaa !117
  %16 = load ptr, ptr %3, align 8, !tbaa !27
  %17 = icmp ne ptr %15, %16
  br i1 %17, label %18, label %26

18:                                               ; preds = %2
  %19 = load ptr, ptr %3, align 8, !tbaa !27
  %20 = load ptr, ptr %5, align 8, !tbaa !26
  %21 = getelementptr inbounds nuw %struct.mutex_prof_data_t, ptr %20, i32 0, i32 7
  store ptr %19, ptr %21, align 8, !tbaa !117
  %22 = load ptr, ptr %5, align 8, !tbaa !26
  %23 = getelementptr inbounds nuw %struct.mutex_prof_data_t, ptr %22, i32 0, i32 6
  %24 = load i64, ptr %23, align 8, !tbaa !118
  %25 = add i64 %24, 1
  store i64 %25, ptr %23, align 8, !tbaa !118
  br label %26

26:                                               ; preds = %18, %2
  call void @llvm.lifetime.end.p0(i64 8, ptr %5) #7
  ret void
}

; Function Attrs: alwaysinline nounwind uwtable
define internal void @atomic_store_b(ptr noundef %0, i1 noundef zeroext %1, i32 noundef %2) #5 {
  %4 = alloca ptr, align 8
  %5 = alloca i8, align 1
  %6 = alloca i32, align 4
  store ptr %0, ptr %4, align 8, !tbaa !26
  %7 = zext i1 %1 to i8
  store i8 %7, ptr %5, align 1, !tbaa !13
  store i32 %2, ptr %6, align 4, !tbaa !38
  %8 = load ptr, ptr %4, align 8, !tbaa !26
  %9 = getelementptr inbounds nuw %struct.atomic_b_t, ptr %8, i32 0, i32 0
  %10 = load i32, ptr %6, align 4, !tbaa !38
  %11 = call i32 @atomic_enum_to_builtin(i32 noundef %10)
  switch i32 %11, label %12 [
    i32 3, label %14
    i32 5, label %16
  ]

12:                                               ; preds = %3
  %13 = load i8, ptr %5, align 1
  store atomic i8 %13, ptr %9 monotonic, align 1
  br label %18

14:                                               ; preds = %3
  %15 = load i8, ptr %5, align 1
  store atomic i8 %15, ptr %9 release, align 1
  br label %18

16:                                               ; preds = %3
  %17 = load i8, ptr %5, align 1
  store atomic i8 %17, ptr %9 seq_cst, align 1
  br label %18

18:                                               ; preds = %16, %14, %12
  ret void
}

; Function Attrs: inlinehint nounwind uwtable
define internal zeroext i1 @malloc_mutex_trylock_final(ptr noundef %0) #4 {
  %2 = alloca ptr, align 8
  store ptr %0, ptr %2, align 8, !tbaa !42
  %3 = load ptr, ptr %2, align 8, !tbaa !42
  %4 = getelementptr inbounds nuw %struct.malloc_mutex_s, ptr %3, i32 0, i32 0
  %5 = getelementptr inbounds nuw %struct.anon, ptr %4, i32 0, i32 1
  %6 = call i32 @pthread_mutex_trylock(ptr noundef %5) #7
  %7 = icmp ne i32 %6, 0
  ret i1 %7
}

; Function Attrs: inlinehint nounwind uwtable
define internal void @witness_assert_not_owner(ptr noundef %0, ptr noundef %1) #4 {
  %3 = alloca ptr, align 8
  %4 = alloca ptr, align 8
  store ptr %0, ptr %3, align 8, !tbaa !36
  store ptr %1, ptr %4, align 8, !tbaa !112
  ret void
}

; Function Attrs: alwaysinline nounwind uwtable
define internal ptr @tsdn_witness_tsdp_get(ptr noundef %0) #5 {
  %2 = alloca ptr, align 8
  %3 = alloca ptr, align 8
  %4 = alloca ptr, align 8
  store ptr %0, ptr %3, align 8, !tbaa !27
  %5 = load ptr, ptr %3, align 8, !tbaa !27
  %6 = call zeroext i1 @tsdn_null(ptr noundef %5)
  br i1 %6, label %7, label %8

7:                                                ; preds = %1
  store ptr null, ptr %2, align 8
  br label %13

8:                                                ; preds = %1
  call void @llvm.lifetime.start.p0(i64 8, ptr %4) #7
  %9 = load ptr, ptr %3, align 8, !tbaa !27
  %10 = call ptr @tsdn_tsd(ptr noundef %9)
  store ptr %10, ptr %4, align 8, !tbaa !40
  %11 = load ptr, ptr %4, align 8, !tbaa !40
  %12 = call ptr @tsd_witness_tsdp_get(ptr noundef %11)
  store ptr %12, ptr %2, align 8
  call void @llvm.lifetime.end.p0(i64 8, ptr %4) #7
  br label %13

13:                                               ; preds = %8, %7
  %14 = load ptr, ptr %2, align 8
  ret ptr %14
}

; Function Attrs: inlinehint nounwind uwtable
define internal void @malloc_mutex_unlock(ptr noundef %0, ptr noundef %1) #4 {
  %3 = alloca ptr, align 8
  %4 = alloca ptr, align 8
  store ptr %0, ptr %3, align 8, !tbaa !27
  store ptr %1, ptr %4, align 8, !tbaa !42
  %5 = load ptr, ptr %4, align 8, !tbaa !42
  %6 = getelementptr inbounds nuw %struct.malloc_mutex_s, ptr %5, i32 0, i32 0
  %7 = getelementptr inbounds nuw %struct.anon, ptr %6, i32 0, i32 2
  call void @atomic_store_b(ptr noundef %7, i1 noundef zeroext false, i32 noundef 0)
  %8 = load ptr, ptr %3, align 8, !tbaa !27
  %9 = call ptr @tsdn_witness_tsdp_get(ptr noundef %8)
  %10 = load ptr, ptr %4, align 8, !tbaa !42
  %11 = getelementptr inbounds nuw %struct.malloc_mutex_s, ptr %10, i32 0, i32 0
  call void @witness_unlock(ptr noundef %9, ptr noundef %11)
  %12 = load ptr, ptr %4, align 8, !tbaa !42
  %13 = getelementptr inbounds nuw %struct.malloc_mutex_s, ptr %12, i32 0, i32 0
  %14 = getelementptr inbounds nuw %struct.anon, ptr %13, i32 0, i32 1
  %15 = call i32 @pthread_mutex_unlock(ptr noundef %14) #7
  ret void
}

; Function Attrs: nounwind uwtable
define internal void @hpa_shard_nonderived_stats_accum(ptr noundef %0, ptr noundef %1) #0 {
  %3 = alloca ptr, align 8
  %4 = alloca ptr, align 8
  store ptr %0, ptr %3, align 8, !tbaa !98
  store ptr %1, ptr %4, align 8, !tbaa !98
  %5 = load ptr, ptr %4, align 8, !tbaa !98
  %6 = getelementptr inbounds nuw %struct.hpa_shard_nonderived_stats_s, ptr %5, i32 0, i32 0
  %7 = load i64, ptr %6, align 8, !tbaa !100
  %8 = load ptr, ptr %3, align 8, !tbaa !98
  %9 = getelementptr inbounds nuw %struct.hpa_shard_nonderived_stats_s, ptr %8, i32 0, i32 0
  %10 = load i64, ptr %9, align 8, !tbaa !100
  %11 = add i64 %10, %7
  store i64 %11, ptr %9, align 8, !tbaa !100
  %12 = load ptr, ptr %4, align 8, !tbaa !98
  %13 = getelementptr inbounds nuw %struct.hpa_shard_nonderived_stats_s, ptr %12, i32 0, i32 1
  %14 = load i64, ptr %13, align 8, !tbaa !101
  %15 = load ptr, ptr %3, align 8, !tbaa !98
  %16 = getelementptr inbounds nuw %struct.hpa_shard_nonderived_stats_s, ptr %15, i32 0, i32 1
  %17 = load i64, ptr %16, align 8, !tbaa !101
  %18 = add i64 %17, %14
  store i64 %18, ptr %16, align 8, !tbaa !101
  %19 = load ptr, ptr %4, align 8, !tbaa !98
  %20 = getelementptr inbounds nuw %struct.hpa_shard_nonderived_stats_s, ptr %19, i32 0, i32 2
  %21 = load i64, ptr %20, align 8, !tbaa !102
  %22 = load ptr, ptr %3, align 8, !tbaa !98
  %23 = getelementptr inbounds nuw %struct.hpa_shard_nonderived_stats_s, ptr %22, i32 0, i32 2
  %24 = load i64, ptr %23, align 8, !tbaa !102
  %25 = add i64 %24, %21
  store i64 %25, ptr %23, align 8, !tbaa !102
  %26 = load ptr, ptr %4, align 8, !tbaa !98
  %27 = getelementptr inbounds nuw %struct.hpa_shard_nonderived_stats_s, ptr %26, i32 0, i32 3
  %28 = load i64, ptr %27, align 8, !tbaa !103
  %29 = load ptr, ptr %3, align 8, !tbaa !98
  %30 = getelementptr inbounds nuw %struct.hpa_shard_nonderived_stats_s, ptr %29, i32 0, i32 3
  %31 = load i64, ptr %30, align 8, !tbaa !103
  %32 = add i64 %31, %28
  store i64 %32, ptr %30, align 8, !tbaa !103
  ret void
}

; Function Attrs: inlinehint nounwind uwtable
define internal void @malloc_mutex_lock(ptr noundef %0, ptr noundef %1) #4 {
  %3 = alloca ptr, align 8
  %4 = alloca ptr, align 8
  store ptr %0, ptr %3, align 8, !tbaa !27
  store ptr %1, ptr %4, align 8, !tbaa !42
  %5 = load ptr, ptr %3, align 8, !tbaa !27
  %6 = call ptr @tsdn_witness_tsdp_get(ptr noundef %5)
  %7 = load ptr, ptr %4, align 8, !tbaa !42
  %8 = getelementptr inbounds nuw %struct.malloc_mutex_s, ptr %7, i32 0, i32 0
  call void @witness_assert_not_owner(ptr noundef %6, ptr noundef %8)
  %9 = load ptr, ptr %4, align 8, !tbaa !42
  %10 = call zeroext i1 @malloc_mutex_trylock_final(ptr noundef %9)
  br i1 %10, label %11, label %16

11:                                               ; preds = %2
  %12 = load ptr, ptr %4, align 8, !tbaa !42
  call void @je_malloc_mutex_lock_slow(ptr noundef %12)
  %13 = load ptr, ptr %4, align 8, !tbaa !42
  %14 = getelementptr inbounds nuw %struct.malloc_mutex_s, ptr %13, i32 0, i32 0
  %15 = getelementptr inbounds nuw %struct.anon, ptr %14, i32 0, i32 2
  call void @atomic_store_b(ptr noundef %15, i1 noundef zeroext true, i32 noundef 0)
  br label %16

16:                                               ; preds = %11, %2
  %17 = load ptr, ptr %3, align 8, !tbaa !27
  %18 = load ptr, ptr %4, align 8, !tbaa !42
  call void @mutex_owner_stats_update(ptr noundef %17, ptr noundef %18)
  %19 = load ptr, ptr %3, align 8, !tbaa !27
  %20 = call ptr @tsdn_witness_tsdp_get(ptr noundef %19)
  %21 = load ptr, ptr %4, align 8, !tbaa !42
  %22 = getelementptr inbounds nuw %struct.malloc_mutex_s, ptr %21, i32 0, i32 0
  call void @witness_lock(ptr noundef %20, ptr noundef %22)
  ret void
}

; Function Attrs: nounwind uwtable
define internal void @hpa_do_consistency_checks(ptr noundef %0) #0 {
  %2 = alloca ptr, align 8
  store ptr %0, ptr %2, align 8, !tbaa !44
  br label %3

3:                                                ; preds = %1
  br label %4

4:                                                ; preds = %3
  ret void
}

; Function Attrs: nounwind uwtable
define hidden void @je_hpa_shard_stats_merge(ptr noundef %0, ptr noundef %1, ptr noundef %2) #0 {
  %4 = alloca ptr, align 8
  %5 = alloca ptr, align 8
  %6 = alloca ptr, align 8
  store ptr %0, ptr %4, align 8, !tbaa !27
  store ptr %1, ptr %5, align 8, !tbaa !44
  store ptr %2, ptr %6, align 8, !tbaa !96
  %7 = load ptr, ptr %5, align 8, !tbaa !44
  call void @hpa_do_consistency_checks(ptr noundef %7)
  %8 = load ptr, ptr %4, align 8, !tbaa !27
  %9 = load ptr, ptr %5, align 8, !tbaa !44
  %10 = getelementptr inbounds nuw %struct.hpa_shard_s, ptr %9, i32 0, i32 3
  call void @malloc_mutex_lock(ptr noundef %8, ptr noundef %10)
  %11 = load ptr, ptr %4, align 8, !tbaa !27
  %12 = load ptr, ptr %5, align 8, !tbaa !44
  %13 = getelementptr inbounds nuw %struct.hpa_shard_s, ptr %12, i32 0, i32 2
  call void @malloc_mutex_lock(ptr noundef %11, ptr noundef %13)
  %14 = load ptr, ptr %6, align 8, !tbaa !96
  %15 = getelementptr inbounds nuw %struct.hpa_shard_stats_s, ptr %14, i32 0, i32 0
  %16 = load ptr, ptr %5, align 8, !tbaa !44
  %17 = getelementptr inbounds nuw %struct.hpa_shard_s, ptr %16, i32 0, i32 6
  %18 = getelementptr inbounds nuw %struct.psset_s, ptr %17, i32 0, i32 3
  call void @je_psset_stats_accum(ptr noundef %15, ptr noundef %18)
  %19 = load ptr, ptr %6, align 8, !tbaa !96
  %20 = getelementptr inbounds nuw %struct.hpa_shard_stats_s, ptr %19, i32 0, i32 1
  %21 = load ptr, ptr %5, align 8, !tbaa !44
  %22 = getelementptr inbounds nuw %struct.hpa_shard_s, ptr %21, i32 0, i32 12
  call void @hpa_shard_nonderived_stats_accum(ptr noundef %20, ptr noundef %22)
  %23 = load ptr, ptr %4, align 8, !tbaa !27
  %24 = load ptr, ptr %5, align 8, !tbaa !44
  %25 = getelementptr inbounds nuw %struct.hpa_shard_s, ptr %24, i32 0, i32 2
  call void @malloc_mutex_unlock(ptr noundef %23, ptr noundef %25)
  %26 = load ptr, ptr %4, align 8, !tbaa !27
  %27 = load ptr, ptr %5, align 8, !tbaa !44
  %28 = getelementptr inbounds nuw %struct.hpa_shard_s, ptr %27, i32 0, i32 3
  call void @malloc_mutex_unlock(ptr noundef %26, ptr noundef %28)
  ret void
}